target datalayout = "e-m:e-p270:32:32-p271:32:32-p272:64:64-i64:64-i128:128-f80:128-n8:16:32:64-S128"
target triple = "x86_64-unknown-linux-gnu"

%"class.std::__cxx11::basic_string" = type { %"struct.std::__cxx11::basic_string<char>::_Alloc_hider", i64, %union.anon }
%"struct.std::__cxx11::basic_string<char>::_Alloc_hider" = type { ptr }
%union.anon = type { i64, [8 x i8] }
%"struct.Assimp::OpenGEX::OpenGEXImporter::VertexContainer" = type { %"class.std::vector.3", i64, ptr, %"class.std::vector.3", [8 x i64], [8 x ptr] }
%"class.std::vector.3" = type { %"struct.std::_Vector_base.4" }
%"struct.std::_Vector_base.4" = type { %"struct.std::_Vector_base<aiVector3t<float>, std::allocator<aiVector3t<float>>>::_Vector_impl" }
%"struct.std::_Vector_base<aiVector3t<float>, std::allocator<aiVector3t<float>>>::_Vector_impl" = type { %"struct.std::_Vector_base<aiVector3t<float>, std::allocator<aiVector3t<float>>>::_Vector_impl_data" }
%"struct.std::_Vector_base<aiVector3t<float>, std::allocator<aiVector3t<float>>>::_Vector_impl_data" = type { ptr, ptr, ptr }
%"class.Assimp::OpenGEX::OpenGEXImporter" = type { %"class.Assimp::BaseImporter", ptr, %"class.std::map", %"class.std::vector.11", %"class.std::map.16", %"class.std::map.16", ptr, [4 x %"struct.Assimp::OpenGEX::MetricInfo"], ptr, %"struct.Assimp::OpenGEX::OpenGEXImporter::VertexContainer", ptr, ptr, ptr, ptr, i32, %"class.std::vector.24", %"class.std::vector.29", %"class.std::vector.34", %"class.std::vector.39", %"class.std::vector.44" }
%"class.Assimp::BaseImporter" = type { ptr, double, double, %"class.std::__cxx11::basic_string", %"class.std::__exception_ptr::exception_ptr", ptr }
%"class.std::__exception_ptr::exception_ptr" = type { ptr }
%"class.std::map" = type { %"class.std::_Rb_tree" }
%"class.std::_Rb_tree" = type { %"struct.std::_Rb_tree<aiNode *, std::pair<aiNode *const, std::unique_ptr<Assimp::OpenGEX::OpenGEXImporter::ChildInfo>>, std::_Select1st<std::pair<aiNode *const, std::unique_ptr<Assimp::OpenGEX::OpenGEXImporter::ChildInfo>>>, std::less<aiNode *>>::_Rb_tree_impl" }
%"struct.std::_Rb_tree<aiNode *, std::pair<aiNode *const, std::unique_ptr<Assimp::OpenGEX::OpenGEXImporter::ChildInfo>>, std::_Select1st<std::pair<aiNode *const, std::unique_ptr<Assimp::OpenGEX::OpenGEXImporter::ChildInfo>>>, std::less<aiNode *>>::_Rb_tree_impl" = type { %"struct.std::_Rb_tree_key_compare", %"struct.std::_Rb_tree_header" }
%"struct.std::_Rb_tree_key_compare" = type { %"struct.std::less" }
%"struct.std::less" = type { i8 }
%"struct.std::_Rb_tree_header" = type { %"struct.std::_Rb_tree_node_base", i64 }
%"struct.std::_Rb_tree_node_base" = type { i32, ptr, ptr, ptr }
%"class.std::vector.11" = type { %"struct.std::_Vector_base.12" }
%"struct.std::_Vector_base.12" = type { %"struct.std::_Vector_base<std::unique_ptr<aiMesh>, std::allocator<std::unique_ptr<aiMesh>>>::_Vector_impl" }
%"struct.std::_Vector_base<std::unique_ptr<aiMesh>, std::allocator<std::unique_ptr<aiMesh>>>::_Vector_impl" = type { %"struct.std::_Vector_base<std::unique_ptr<aiMesh>, std::allocator<std::unique_ptr<aiMesh>>>::_Vector_impl_data" }
%"struct.std::_Vector_base<std::unique_ptr<aiMesh>, std::allocator<std::unique_ptr<aiMesh>>>::_Vector_impl_data" = type { ptr, ptr, ptr }
%"class.std::map.16" = type { %"class.std::_Rb_tree.17" }
%"class.std::_Rb_tree.17" = type { %"struct.std::_Rb_tree<std::__cxx11::basic_string<char>, std::pair<const std::__cxx11::basic_string<char>, unsigned long>, std::_Select1st<std::pair<const std::__cxx11::basic_string<char>, unsigned long>>, std::less<std::__cxx11::basic_string<char>>>::_Rb_tree_impl" }
%"struct.std::_Rb_tree<std::__cxx11::basic_string<char>, std::pair<const std::__cxx11::basic_string<char>, unsigned long>, std::_Select1st<std::pair<const std::__cxx11::basic_string<char>, unsigned long>>, std::less<std::__cxx11::basic_string<char>>>::_Rb_tree_impl" = type { %"struct.std::_Rb_tree_key_compare.21", %"struct.std::_Rb_tree_header" }
%"struct.std::_Rb_tree_key_compare.21" = type { %"struct.std::less.22" }
%"struct.std::less.22" = type { i8 }
%"struct.Assimp::OpenGEX::MetricInfo" = type { %"class.std::__cxx11::basic_string", float, i32 }
%"class.std::vector.24" = type { %"struct.std::_Vector_base.25" }
%"struct.std::_Vector_base.25" = type { %"struct.std::_Vector_base<aiMaterial *, std::allocator<aiMaterial *>>::_Vector_impl" }
%"struct.std::_Vector_base<aiMaterial *, std::allocator<aiMaterial *>>::_Vector_impl" = type { %"struct.std::_Vector_base<aiMaterial *, std::allocator<aiMaterial *>>::_Vector_impl_data" }
%"struct.std::_Vector_base<aiMaterial *, std::allocator<aiMaterial *>>::_Vector_impl_data" = type { ptr, ptr, ptr }
%"class.std::vector.29" = type { %"struct.std::_Vector_base.30" }
%"struct.std::_Vector_base.30" = type { %"struct.std::_Vector_base<aiCamera *, std::allocator<aiCamera *>>::_Vector_impl" }
%"struct.std::_Vector_base<aiCamera *, std::allocator<aiCamera *>>::_Vector_impl" = type { %"struct.std::_Vector_base<aiCamera *, std::allocator<aiCamera *>>::_Vector_impl_data" }
%"struct.std::_Vector_base<aiCamera *, std::allocator<aiCamera *>>::_Vector_impl_data" = type { ptr, ptr, ptr }
%"class.std::vector.34" = type { %"struct.std::_Vector_base.35" }
%"struct.std::_Vector_base.35" = type { %"struct.std::_Vector_base<aiLight *, std::allocator<aiLight *>>::_Vector_impl" }
%"struct.std::_Vector_base<aiLight *, std::allocator<aiLight *>>::_Vector_impl" = type { %"struct.std::_Vector_base<aiLight *, std::allocator<aiLight *>>::_Vector_impl_data" }
%"struct.std::_Vector_base<aiLight *, std::allocator<aiLight *>>::_Vector_impl_data" = type { ptr, ptr, ptr }
%"class.std::vector.39" = type { %"struct.std::_Vector_base.40" }
%"struct.std::_Vector_base.40" = type { %"struct.std::_Vector_base<aiNode *, std::allocator<aiNode *>>::_Vector_impl" }
%"struct.std::_Vector_base<aiNode *, std::allocator<aiNode *>>::_Vector_impl" = type { %"struct.std::_Vector_base<aiNode *, std::allocator<aiNode *>>::_Vector_impl_data" }
%"struct.std::_Vector_base<aiNode *, std::allocator<aiNode *>>::_Vector_impl_data" = type { ptr, ptr, ptr }
%"class.std::vector.44" = type { %"struct.std::_Vector_base.45" }
%"struct.std::_Vector_base.45" = type { %"struct.std::_Vector_base<std::unique_ptr<Assimp::OpenGEX::OpenGEXImporter::RefInfo>, std::allocator<std::unique_ptr<Assimp::OpenGEX::OpenGEXImporter::RefInfo>>>::_Vector_impl" }
%"struct.std::_Vector_base<std::unique_ptr<Assimp::OpenGEX::OpenGEXImporter::RefInfo>, std::allocator<std::unique_ptr<Assimp::OpenGEX::OpenGEXImporter::RefInfo>>>::_Vector_impl" = type { %"struct.std::_Vector_base<std::unique_ptr<Assimp::OpenGEX::OpenGEXImporter::RefInfo>, std::allocator<std::unique_ptr<Assimp::OpenGEX::OpenGEXImporter::RefInfo>>>::_Vector_impl_data" }
%"struct.std::_Vector_base<std::unique_ptr<Assimp::OpenGEX::OpenGEXImporter::RefInfo>, std::allocator<std::unique_ptr<Assimp::OpenGEX::OpenGEXImporter::RefInfo>>>::_Vector_impl_data" = type { ptr, ptr, ptr }
%struct.aiScene = type { i32, ptr, i32, ptr, i32, ptr, i32, ptr, i32, ptr, i32, ptr, i32, ptr, ptr, %struct.aiString, i32, ptr, ptr }
%struct.aiString = type { i32, [1024 x i8] }
%"class.std::unique_ptr.60" = type { %"struct.std::__uniq_ptr_data.61" }
%"struct.std::__uniq_ptr_data.61" = type { %"class.std::__uniq_ptr_impl.62" }
%"class.std::__uniq_ptr_impl.62" = type { %"class.std::tuple.63" }
%"class.std::tuple.63" = type { %"struct.std::_Tuple_impl.64" }
%"struct.std::_Tuple_impl.64" = type { %"struct.std::_Head_base.67" }
%"struct.std::_Head_base.67" = type { ptr }
%"class.__gnu_cxx::__normal_iterator.119" = type { ptr }

; Function Attrs: mustprogress nounwind uwtable
define linkonce_odr hidden noundef nonnull align 8 dereferenceable(8) ptr @_ZNSt10_Head_baseILm0EP6aiMeshLb0EE7_M_headERS2_(ptr noundef nonnull align 8 dereferenceable(8) %__b) #0 comdat align 2 {
entry:
  %__b.addr = alloca ptr, align 8
  store ptr %__b, ptr %__b.addr, align 8
  %0 = load ptr, ptr %__b.addr, align 8
  %_M_head_impl = getelementptr inbounds %"struct.std::_Head_base.67", ptr %0, i32 0, i32 0
  ret ptr %_M_head_impl
}

; Function Attrs: mustprogress nounwind uwtable
define linkonce_odr hidden noundef nonnull align 8 dereferenceable(8) ptr @_ZNSt11_Tuple_implILm0EJP6aiMeshSt14default_deleteIS0_EEE7_M_headERS4_(ptr noundef nonnull align 8 dereferenceable(8) %__t) #0 comdat align 2 {
entry:
  %__t.addr = alloca ptr, align 8
  store ptr %__t, ptr %__t.addr, align 8
  %0 = load ptr, ptr %__t.addr, align 8
  %call = call noundef nonnull align 8 dereferenceable(8) ptr @_ZNSt10_Head_baseILm0EP6aiMeshLb0EE7_M_headERS2_(ptr noundef nonnull align 8 dereferenceable(8) %0) #5
  ret ptr %call
}

; Function Attrs: mustprogress nounwind uwtable
define linkonce_odr hidden noundef nonnull align 8 dereferenceable(8) ptr @_ZSt12__get_helperILm0EP6aiMeshJSt14default_deleteIS0_EEERT0_RSt11_Tuple_implIXT_EJS4_DpT1_EE(ptr noundef nonnull align 8 dereferenceable(8) %__t) #0 comdat {
entry:
  %__t.addr = alloca ptr, align 8
  store ptr %__t, ptr %__t.addr, align 8
  %0 = load ptr, ptr %__t.addr, align 8
  %call = call noundef nonnull align 8 dereferenceable(8) ptr @_ZNSt11_Tuple_implILm0EJP6aiMeshSt14default_deleteIS0_EEE7_M_headERS4_(ptr noundef nonnull align 8 dereferenceable(8) %0) #5
  ret ptr %call
}

; Function Attrs: mustprogress nounwind uwtable
define linkonce_odr hidden noundef nonnull align 8 dereferenceable(8) ptr @_ZSt3getILm0EJP6aiMeshSt14default_deleteIS0_EEERNSt13tuple_elementIXT_ESt5tupleIJDpT0_EEE4typeERS8_(ptr noundef nonnull align 8 dereferenceable(8) %__t) #0 comdat {
entry:
  %__t.addr = alloca ptr, align 8
  store ptr %__t, ptr %__t.addr, align 8
  %0 = load ptr, ptr %__t.addr, align 8
  %call = call noundef nonnull align 8 dereferenceable(8) ptr @_ZSt12__get_helperILm0EP6aiMeshJSt14default_deleteIS0_EEERT0_RSt11_Tuple_implIXT_EJS4_DpT1_EE(ptr noundef nonnull align 8 dereferenceable(8) %0) #5
  ret ptr %call
}

; Function Attrs: mustprogress nounwind uwtable
define linkonce_odr hidden noundef nonnull align 8 dereferenceable(8) ptr @_ZNSt15__uniq_ptr_implI6aiMeshSt14default_deleteIS0_EE6_M_ptrEv(ptr noundef nonnull align 8 dereferenceable(8) %this) #0 comdat align 2 {
entry:
  %this.addr = alloca ptr, align 8
  store ptr %this, ptr %this.addr, align 8
  %this1 = load ptr, ptr %this.addr, align 8
  %_M_t = getelementptr inbounds %"class.std::__uniq_ptr_impl.62", ptr %this1, i32 0, i32 0
  %call = call noundef nonnull align 8 dereferenceable(8) ptr @_ZSt3getILm0EJP6aiMeshSt14default_deleteIS0_EEERNSt13tuple_elementIXT_ESt5tupleIJDpT0_EEE4typeERS8_(ptr noundef nonnull align 8 dereferenceable(8) %_M_t) #5
  ret ptr %call
}

; Function Attrs: mustprogress nounwind uwtable
define linkonce_odr hidden noundef nonnull align 8 dereferenceable(8) ptr @_ZNK9__gnu_cxx17__normal_iteratorIPKSt10unique_ptrI6aiMeshSt14default_deleteIS2_EESt6vectorIS5_SaIS5_EEE4baseEv(ptr noundef nonnull align 8 dereferenceable(8) %this) #0 comdat align 2 {
entry:
  %this.addr = alloca ptr, align 8
  store ptr %this, ptr %this.addr, align 8
  %this1 = load ptr, ptr %this.addr, align 8
  %_M_current = getelementptr inbounds %"class.__gnu_cxx::__normal_iterator.119", ptr %this1, i32 0, i32 0
  ret ptr %_M_current
}

; Function Attrs: mustprogress nounwind uwtable
define linkonce_odr hidden void @_ZN9__gnu_cxx17__normal_iteratorIPKSt10unique_ptrI6aiMeshSt14default_deleteIS2_EESt6vectorIS5_SaIS5_EEEC2ERKS7_(ptr noundef nonnull align 8 dereferenceable(8) %this, ptr noundef nonnull align 8 dereferenceable(8) %__i) unnamed_addr #0 comdat align 2 {
entry:
  %this.addr = alloca ptr, align 8
  %__i.addr = alloca ptr, align 8
  store ptr %this, ptr %this.addr, align 8
  store ptr %__i, ptr %__i.addr, align 8
  %this1 = load ptr, ptr %this.addr, align 8
  %_M_current = getelementptr inbounds %"class.__gnu_cxx::__normal_iterator.119", ptr %this1, i32 0, i32 0
  %0 = load ptr, ptr %__i.addr, align 8
  %1 = load ptr, ptr %0, align 8
  store ptr %1, ptr %_M_current, align 8
  ret void
}

; Function Attrs: mustprogress nounwind uwtable
define linkonce_odr hidden noundef ptr @_ZNSt15__uniq_ptr_implI6aiMeshSt14default_deleteIS0_EE7releaseEv(ptr noundef nonnull align 8 dereferenceable(8) %this) #0 comdat align 2 {
entry:
  %this.addr = alloca ptr, align 8
  %__p = alloca ptr, align 8
  store ptr %this, ptr %this.addr, align 8
  %this1 = load ptr, ptr %this.addr, align 8
  %call = call noundef nonnull align 8 dereferenceable(8) ptr @_ZNSt15__uniq_ptr_implI6aiMeshSt14default_deleteIS0_EE6_M_ptrEv(ptr noundef nonnull align 8 dereferenceable(8) %this1) #5
  %0 = load ptr, ptr %call, align 8
  store ptr %0, ptr %__p, align 8
  %call2 = call noundef nonnull align 8 dereferenceable(8) ptr @_ZNSt15__uniq_ptr_implI6aiMeshSt14default_deleteIS0_EE6_M_ptrEv(ptr noundef nonnull align 8 dereferenceable(8) %this1) #5
  store ptr null, ptr %call2, align 8
  %1 = load ptr, ptr %__p, align 8
  ret ptr %1
}

; Function Attrs: mustprogress nounwind uwtable
define linkonce_odr hidden noundef zeroext i1 @_ZN9__gnu_cxxeqIPKSt10unique_ptrI6aiMeshSt14default_deleteIS2_EESt6vectorIS5_SaIS5_EEEEbRKNS_17__normal_iteratorIT_T0_EESG_(ptr noundef nonnull align 8 dereferenceable(8) %__lhs, ptr noundef nonnull align 8 dereferenceable(8) %__rhs) #0 comdat {
entry:
  %__lhs.addr = alloca ptr, align 8
  %__rhs.addr = alloca ptr, align 8
  store ptr %__lhs, ptr %__lhs.addr, align 8
  store ptr %__rhs, ptr %__rhs.addr, align 8
  %0 = load ptr, ptr %__lhs.addr, align 8
  %call = call noundef nonnull align 8 dereferenceable(8) ptr @_ZNK9__gnu_cxx17__normal_iteratorIPKSt10unique_ptrI6aiMeshSt14default_deleteIS2_EESt6vectorIS5_SaIS5_EEE4baseEv(ptr noundef nonnull align 8 dereferenceable(8) %0) #5
  %1 = load ptr, ptr %call, align 8
  %2 = load ptr, ptr %__rhs.addr, align 8
  %call1 = call noundef nonnull align 8 dereferenceable(8) ptr @_ZNK9__gnu_cxx17__normal_iteratorIPKSt10unique_ptrI6aiMeshSt14default_deleteIS2_EESt6vectorIS5_SaIS5_EEE4baseEv(ptr noundef nonnull align 8 dereferenceable(8) %2) #5
  %3 = load ptr, ptr %call1, align 8
  %cmp = icmp eq ptr %1, %3
  ret i1 %cmp
}

; Function Attrs: mustprogress nounwind uwtable
define linkonce_odr hidden ptr @_ZNKSt6vectorISt10unique_ptrI6aiMeshSt14default_deleteIS1_EESaIS4_EE3endEv(ptr noundef nonnull align 8 dereferenceable(24) %this) #0 comdat align 2 {
entry:
  %retval = alloca %"class.__gnu_cxx::__normal_iterator.119", align 8
  %this.addr = alloca ptr, align 8
  store ptr %this, ptr %this.addr, align 8
  %this1 = load ptr, ptr %this.addr, align 8
  %_M_impl = getelementptr inbounds %"struct.std::_Vector_base.12", ptr %this1, i32 0, i32 0
  %_M_finish = getelementptr inbounds %"struct.std::_Vector_base<std::unique_ptr<aiMesh>, std::allocator<std::unique_ptr<aiMesh>>>::_Vector_impl_data", ptr %_M_impl, i32 0, i32 1
  call void @_ZN9__gnu_cxx17__normal_iteratorIPKSt10unique_ptrI6aiMeshSt14default_deleteIS2_EESt6vectorIS5_SaIS5_EEEC2ERKS7_(ptr noundef nonnull align 8 dereferenceable(8) %retval, ptr noundef nonnull align 8 dereferenceable(8) %_M_finish) #5
  %coerce.dive = getelementptr inbounds %"class.__gnu_cxx::__normal_iterator.119", ptr %retval, i32 0, i32 0
  %0 = load ptr, ptr %coerce.dive, align 8
  ret ptr %0
}

; Function Attrs: mustprogress nounwind uwtable
define linkonce_odr hidden ptr @_ZNKSt6vectorISt10unique_ptrI6aiMeshSt14default_deleteIS1_EESaIS4_EE5beginEv(ptr noundef nonnull align 8 dereferenceable(24) %this) #0 comdat align 2 {
entry:
  %retval = alloca %"class.__gnu_cxx::__normal_iterator.119", align 8
  %this.addr = alloca ptr, align 8
  store ptr %this, ptr %this.addr, align 8
  %this1 = load ptr, ptr %this.addr, align 8
  %_M_impl = getelementptr inbounds %"struct.std::_Vector_base.12", ptr %this1, i32 0, i32 0
  %_M_start = getelementptr inbounds %"struct.std::_Vector_base<std::unique_ptr<aiMesh>, std::allocator<std::unique_ptr<aiMesh>>>::_Vector_impl_data", ptr %_M_impl, i32 0, i32 0
  call void @_ZN9__gnu_cxx17__normal_iteratorIPKSt10unique_ptrI6aiMeshSt14default_deleteIS2_EESt6vectorIS5_SaIS5_EEEC2ERKS7_(ptr noundef nonnull align 8 dereferenceable(8) %retval, ptr noundef nonnull align 8 dereferenceable(8) %_M_start) #5
  %coerce.dive = getelementptr inbounds %"class.__gnu_cxx::__normal_iterator.119", ptr %retval, i32 0, i32 0
  %0 = load ptr, ptr %coerce.dive, align 8
  ret ptr %0
}

; Function Attrs: mustprogress nounwind uwtable
define linkonce_odr hidden noundef ptr @_ZNSt10unique_ptrI6aiMeshSt14default_deleteIS0_EE7releaseEv(ptr noundef nonnull align 8 dereferenceable(8) %this) #0 comdat align 2 {
entry:
  %this.addr = alloca ptr, align 8
  store ptr %this, ptr %this.addr, align 8
  %this1 = load ptr, ptr %this.addr, align 8
  %_M_t = getelementptr inbounds %"class.std::unique_ptr.60", ptr %this1, i32 0, i32 0
  %call = call noundef ptr @_ZNSt15__uniq_ptr_implI6aiMeshSt14default_deleteIS0_EE7releaseEv(ptr noundef nonnull align 8 dereferenceable(8) %_M_t) #5
  ret ptr %call
}

; Function Attrs: mustprogress nounwind uwtable
define linkonce_odr hidden noundef nonnull align 8 dereferenceable(8) ptr @_ZNSt6vectorISt10unique_ptrI6aiMeshSt14default_deleteIS1_EESaIS4_EEixEm(ptr noundef nonnull align 8 dereferenceable(24) %this, i64 noundef %__n) #0 comdat align 2 {
entry:
  %this.addr = alloca ptr, align 8
  %__n.addr = alloca i64, align 8
  store ptr %this, ptr %this.addr, align 8
  store i64 %__n, ptr %__n.addr, align 8
  %this1 = load ptr, ptr %this.addr, align 8
  %_M_impl = getelementptr inbounds %"struct.std::_Vector_base.12", ptr %this1, i32 0, i32 0
  %_M_start = getelementptr inbounds %"struct.std::_Vector_base<std::unique_ptr<aiMesh>, std::allocator<std::unique_ptr<aiMesh>>>::_Vector_impl_data", ptr %_M_impl, i32 0, i32 0
  %0 = load ptr, ptr %_M_start, align 8
  %1 = load i64, ptr %__n.addr, align 8
  %add.ptr = getelementptr inbounds %"class.std::unique_ptr.60", ptr %0, i64 %1
  ret ptr %add.ptr
}

; Function Attrs: mustprogress nounwind uwtable
define linkonce_odr hidden noundef i64 @_ZNKSt6vectorISt10unique_ptrI6aiMeshSt14default_deleteIS1_EESaIS4_EE4sizeEv(ptr noundef nonnull align 8 dereferenceable(24) %this) #0 comdat align 2 {
entry:
  %this.addr = alloca ptr, align 8
  store ptr %this, ptr %this.addr, align 8
  %this1 = load ptr, ptr %this.addr, align 8
  %_M_impl = getelementptr inbounds %"struct.std::_Vector_base.12", ptr %this1, i32 0, i32 0
  %_M_finish = getelementptr inbounds %"struct.std::_Vector_base<std::unique_ptr<aiMesh>, std::allocator<std::unique_ptr<aiMesh>>>::_Vector_impl_data", ptr %_M_impl, i32 0, i32 1
  %0 = load ptr, ptr %_M_finish, align 8
  %_M_impl2 = getelementptr inbounds %"struct.std::_Vector_base.12", ptr %this1, i32 0, i32 0
  %_M_start = getelementptr inbounds %"struct.std::_Vector_base<std::unique_ptr<aiMesh>, std::allocator<std::unique_ptr<aiMesh>>>::_Vector_impl_data", ptr %_M_impl2, i32 0, i32 0
  %1 = load ptr, ptr %_M_start, align 8
  %sub.ptr.lhs.cast = ptrtoint ptr %0 to i64
  %sub.ptr.rhs.cast = ptrtoint ptr %1 to i64
  %sub.ptr.sub = sub i64 %sub.ptr.lhs.cast, %sub.ptr.rhs.cast
  %sub.ptr.div = sdiv exact i64 %sub.ptr.sub, 8
  ret i64 %sub.ptr.div
}

; Function Attrs: mustprogress nounwind uwtable
define linkonce_odr hidden noundef zeroext i1 @_ZNKSt6vectorISt10unique_ptrI6aiMeshSt14default_deleteIS1_EESaIS4_EE5emptyEv(ptr noundef nonnull align 8 dereferenceable(24) %this) #0 comdat align 2 {
entry:
  %this.addr = alloca ptr, align 8
  %ref.tmp = alloca %"class.__gnu_cxx::__normal_iterator.119", align 8
  %ref.tmp2 = alloca %"class.__gnu_cxx::__normal_iterator.119", align 8
  store ptr %this, ptr %this.addr, align 8
  %this1 = load ptr, ptr %this.addr, align 8
  %call = call ptr @_ZNKSt6vectorISt10unique_ptrI6aiMeshSt14default_deleteIS1_EESaIS4_EE5beginEv(ptr noundef nonnull align 8 dereferenceable(24) %this1) #5
  %coerce.dive = getelementptr inbounds %"class.__gnu_cxx::__normal_iterator.119", ptr %ref.tmp, i32 0, i32 0
  store ptr %call, ptr %coerce.dive, align 8
  %call3 = call ptr @_ZNKSt6vectorISt10unique_ptrI6aiMeshSt14default_deleteIS1_EESaIS4_EE3endEv(ptr noundef nonnull align 8 dereferenceable(24) %this1) #5
  %coerce.dive4 = getelementptr inbounds %"class.__gnu_cxx::__normal_iterator.119", ptr %ref.tmp2, i32 0, i32 0
  store ptr %call3, ptr %coerce.dive4, align 8
  %call5 = call noundef zeroext i1 @_ZN9__gnu_cxxeqIPKSt10unique_ptrI6aiMeshSt14default_deleteIS2_EESt6vectorIS5_SaIS5_EEEEbRKNS_17__normal_iteratorIT_T0_EESG_(ptr noundef nonnull align 8 dereferenceable(8) %ref.tmp, ptr noundef nonnull align 8 dereferenceable(8) %ref.tmp2) #5
  ret i1 %call5
}

; Function Attrs: mustprogress uwtable
define hidden void @_ZN6Assimp7OpenGEX15OpenGEXImporter10copyMeshesEP7aiScene(ptr noundef nonnull align 8 dereferenceable(776) %this, ptr noundef %pScene) #4 align 2 {
entry:
  %this.addr = alloca ptr, align 8
  %pScene.addr = alloca ptr, align 8
  %i = alloca i32, align 4
  store ptr %this, ptr %this.addr, align 8
  store ptr %pScene, ptr %pScene.addr, align 8
  %this1 = load ptr, ptr %this.addr, align 8
  %m_meshCache = getelementptr inbounds %"class.Assimp::OpenGEX::OpenGEXImporter", ptr %this1, i32 0, i32 3
  %call = call noundef zeroext i1 @_ZNKSt6vectorISt10unique_ptrI6aiMeshSt14default_deleteIS1_EESaIS4_EE5emptyEv(ptr noundef nonnull align 8 dereferenceable(24) %m_meshCache) #5
  br i1 %call, label %if.then, label %if.end

if.then:                                          ; preds = %entry
  br label %for.end

if.end:                                           ; preds = %entry
  %m_meshCache2 = getelementptr inbounds %"class.Assimp::OpenGEX::OpenGEXImporter", ptr %this1, i32 0, i32 3
  %call3 = call noundef i64 @_ZNKSt6vectorISt10unique_ptrI6aiMeshSt14default_deleteIS1_EESaIS4_EE4sizeEv(ptr noundef nonnull align 8 dereferenceable(24) %m_meshCache2) #5
  %conv = trunc i64 %call3 to i32
  %0 = load ptr, ptr %pScene.addr, align 8
  %mNumMeshes = getelementptr inbounds %struct.aiScene, ptr %0, i32 0, i32 2
  store i32 %conv, ptr %mNumMeshes, align 8
  %1 = load ptr, ptr %pScene.addr, align 8
  %mNumMeshes4 = getelementptr inbounds %struct.aiScene, ptr %1, i32 0, i32 2
  %2 = load i32, ptr %mNumMeshes4, align 8
  %conv5 = zext i32 %2 to i64
  %3 = call { i64, i1 } @llvm.umul.with.overflow.i64(i64 %conv5, i64 8)
  %4 = extractvalue { i64, i1 } %3, 1
  %5 = extractvalue { i64, i1 } %3, 0
  %6 = select i1 %4, i64 -1, i64 %5
  %call6 = call noalias noundef nonnull ptr @_Znam(i64 noundef %6) #18
  %7 = load ptr, ptr %pScene.addr, align 8
  %mMeshes = getelementptr inbounds %struct.aiScene, ptr %7, i32 0, i32 3
  store ptr %call6, ptr %mMeshes, align 8
  store i32 0, ptr %i, align 4
  br label %for.cond

for.cond:                                         ; preds = %for.inc, %if.end
  %8 = load i32, ptr %i, align 4
  %9 = load ptr, ptr %pScene.addr, align 8
  %mNumMeshes7 = getelementptr inbounds %struct.aiScene, ptr %9, i32 0, i32 2
  %10 = load i32, ptr %mNumMeshes7, align 8
  %cmp = icmp ult i32 %8, %10
  br i1 %cmp, label %for.body, label %for.end

for.body:                                         ; preds = %for.cond
  %m_meshCache8 = getelementptr inbounds %"class.Assimp::OpenGEX::OpenGEXImporter", ptr %this1, i32 0, i32 3
  %11 = load i32, ptr %i, align 4
  %conv9 = zext i32 %11 to i64
  %call10 = call noundef nonnull align 8 dereferenceable(8) ptr @_ZNSt6vectorISt10unique_ptrI6aiMeshSt14default_deleteIS1_EESaIS4_EEixEm(ptr noundef nonnull align 8 dereferenceable(24) %m_meshCache8, i64 noundef %conv9) #5
  %call11 = call noundef ptr @_ZNSt10unique_ptrI6aiMeshSt14default_deleteIS0_EE7releaseEv(ptr noundef nonnull align 8 dereferenceable(8) %call10) #5
  %12 = load ptr, ptr %pScene.addr, align 8
  %mMeshes12 = getelementptr inbounds %struct.aiScene, ptr %12, i32 0, i32 3
  %13 = load ptr, ptr %mMeshes12, align 8
  %14 = load i32, ptr %i, align 4
  %idxprom = zext i32 %14 to i64
  %arrayidx = getelementptr inbounds ptr, ptr %13, i64 %idxprom
  store ptr %call11, ptr %arrayidx, align 8
  br label %for.inc

for.inc:                                          ; preds = %for.body
  %15 = load i32, ptr %i, align 4
  %inc = add i32 %15, 1
  store i32 %inc, ptr %i, align 4
  br label %for.cond, !llvm.loop !6

for.end:                                          ; preds = %for.cond, %if.then
  ret void
}