; Function Attrs: mustprogress uwtable
define hidden void @_ZN6Assimp7OpenGEX15OpenGEXImporter10copyMeshesEP7aiScene(ptr nocapture noundef nonnull readonly align 8 dereferenceable(776) %this, ptr nocapture noundef %pScene) local_unnamed_addr #7 align 2 {
entry:
  %m_meshCache = getelementptr inbounds i8, ptr %this, i64 128
  %0 = load ptr, ptr %m_meshCache, align 8
  %_M_finish.i.i = getelementptr inbounds i8, ptr %this, i64 136
  %1 = load ptr, ptr %_M_finish.i.i, align 8
  %cmp.i.i = icmp eq ptr %0, %1
  br i1 %cmp.i.i, label %for.end, label %if.end

if.end:                                           ; preds = %entry
  %sub.ptr.lhs.cast.i = ptrtoint ptr %1 to i64
  %sub.ptr.rhs.cast.i = ptrtoint ptr %0 to i64
  %sub.ptr.sub.i = sub i64 %sub.ptr.lhs.cast.i, %sub.ptr.rhs.cast.i
  %sub.ptr.div.i = lshr exact i64 %sub.ptr.sub.i, 3
  %conv = trunc i64 %sub.ptr.div.i to i32
  %mNumMeshes = getelementptr inbounds i8, ptr %pScene, i64 16
  store i32 %conv, ptr %mNumMeshes, align 8
  %2 = and i64 %sub.ptr.sub.i, 34359738360
  %call6 = tail call noalias noundef nonnull ptr @_Znam(i64 noundef %2) #28
  %mMeshes = getelementptr inbounds i8, ptr %pScene, i64 24
  store ptr %call6, ptr %mMeshes, align 8
  %cmp8.not = icmp eq i32 %conv, 0
  br i1 %cmp8.not, label %for.end, label %for.body

for.body:                                         ; preds = %if.end, %for.body
  %indvars.iv = phi i64 [ %indvars.iv.next, %for.body ], [ 0, %if.end ]
  %3 = load ptr, ptr %m_meshCache, align 8
  %add.ptr.i = getelementptr inbounds %"class.std::unique_ptr.60", ptr %3, i64 %indvars.iv
  %4 = load ptr, ptr %add.ptr.i, align 8
  store ptr null, ptr %add.ptr.i, align 8
  %5 = load ptr, ptr %mMeshes, align 8
  %arrayidx = getelementptr inbounds ptr, ptr %5, i64 %indvars.iv
  store ptr %4, ptr %arrayidx, align 8
  %indvars.iv.next = add nuw nsw i64 %indvars.iv, 1
  %6 = load i32, ptr %mNumMeshes, align 8
  %7 = zext i32 %6 to i64
  %cmp = icmp ult i64 %indvars.iv.next, %7
  br i1 %cmp, label %for.body, label %for.end, !llvm.loop !7

for.end:                                          ; preds = %for.body, %if.end, %entry
  ret void
}